target datalayout = "e-m:e-p270:32:32-p271:32:32-p272:64:64-i64:64-i128:128-f80:128-n8:16:32:64-S128"
target triple = "x86_64-pc-linux-gnu"

%struct.cavs_vector = type { i16, i16, i16, i16 }
%struct.AVSContext = type { ptr, %struct.BlockDSPContext, %struct.H264ChromaContext, %struct.VideoDSPContext, %struct.CAVSDSPContext, %struct.GetBitContext, %struct.AVSFrame, [2 x %struct.AVSFrame], [2 x i32], i32, i32, i32, i32, i32, i32, i32, i32, i32, i32, i32, i32, i32, i32, i32, i32, i32, i32, i32, i32, i32, ptr, ptr, ptr, i32, ptr, [24 x %struct.cavs_vector], [2 x ptr], ptr, [9 x i32], ptr, i64, i64, [4 x i32], i32, i32, i32, i32, [64 x i8], ptr, ptr, ptr, [26 x i8], [10 x i8], [10 x i8], [26 x i8], i8, i8, i8, [8 x ptr], [7 x ptr], ptr, i32, [2 x i32], [2 x i32], ptr, i32, ptr }
%struct.BlockDSPContext = type { ptr, ptr, [2 x ptr] }
%struct.H264ChromaContext = type { [4 x ptr], [4 x ptr] }
%struct.VideoDSPContext = type { ptr, ptr }
%struct.CAVSDSPContext = type { [2 x [16 x ptr]], [2 x [16 x ptr]], ptr, ptr, ptr, ptr, ptr, i32 }
%struct.GetBitContext = type { ptr, ptr, i32, i32, i32 }
%struct.AVSFrame = type { ptr, i32 }

@left_modifier_l = internal constant [8 x i8] c"\00\FF\06\FF\FF\07\06\07", align 1
@left_modifier_c = internal constant [7 x i8] c"\05\FF\02\FF\06\05\06", align 1
@top_modifier_l = internal constant [8 x i8] c"\FF\01\05\FF\FF\05\07\07", align 1
@top_modifier_c = internal constant [7 x i8] c"\04\01\FF\FF\04\06\06", align 1
@.str.1 = private unnamed_addr constant [31 x i8] c"Illegal intra prediction mode\0A\00", align 1

; Function Attrs: inlinehint nounwind uwtable
define internal void @modify_pred(ptr noundef %0, ptr noundef %1) #4 {
  %3 = alloca ptr, align 8
  %4 = alloca ptr, align 8
  store ptr %0, ptr %3, align 8, !tbaa !57
  store ptr %1, ptr %4, align 8, !tbaa !63
  %5 = load ptr, ptr %3, align 8, !tbaa !57
  %6 = load ptr, ptr %4, align 8, !tbaa !63
  %7 = load i32, ptr %6, align 4, !tbaa !9
  %8 = sext i32 %7 to i64
  %9 = getelementptr inbounds i8, ptr %5, i64 %8
  %10 = load i8, ptr %9, align 1, !tbaa !27
  %11 = sext i8 %10 to i32
  %12 = load ptr, ptr %4, align 8, !tbaa !63
  store i32 %11, ptr %12, align 4, !tbaa !9
  %13 = load ptr, ptr %4, align 8, !tbaa !63
  %14 = load i32, ptr %13, align 4, !tbaa !9
  %15 = icmp slt i32 %14, 0
  br i1 %15, label %16, label %18

16:                                               ; preds = %2
  call void (ptr, i32, ptr, ...) @av_log(ptr noundef null, i32 noundef 16, ptr noundef @.str.1)
  %17 = load ptr, ptr %4, align 8, !tbaa !63
  store i32 0, ptr %17, align 4, !tbaa !9
  br label %18

18:                                               ; preds = %16, %2
  ret void
}

; Function Attrs: nounwind uwtable
define void @ff_cavs_modify_mb_i(ptr noundef %0, ptr noundef %1) #0 {
  %3 = alloca ptr, align 8
  %4 = alloca ptr, align 8
  store ptr %0, ptr %3, align 8, !tbaa !4
  store ptr %1, ptr %4, align 8, !tbaa !63
  %5 = load ptr, ptr %3, align 8, !tbaa !4
  %6 = getelementptr inbounds nuw %struct.AVSContext, ptr %5, i32 0, i32 38
  %7 = getelementptr inbounds [9 x i32], ptr %6, i64 0, i64 5
  %8 = load i32, ptr %7, align 4, !tbaa !9
  %9 = load ptr, ptr %3, align 8, !tbaa !4
  %10 = getelementptr inbounds nuw %struct.AVSContext, ptr %9, i32 0, i32 38
  %11 = getelementptr inbounds [9 x i32], ptr %10, i64 0, i64 3
  store i32 %8, ptr %11, align 4, !tbaa !9
  %12 = load ptr, ptr %3, align 8, !tbaa !4
  %13 = getelementptr inbounds nuw %struct.AVSContext, ptr %12, i32 0, i32 38
  %14 = getelementptr inbounds [9 x i32], ptr %13, i64 0, i64 8
  %15 = load i32, ptr %14, align 8, !tbaa !9
  %16 = load ptr, ptr %3, align 8, !tbaa !4
  %17 = getelementptr inbounds nuw %struct.AVSContext, ptr %16, i32 0, i32 38
  %18 = getelementptr inbounds [9 x i32], ptr %17, i64 0, i64 6
  store i32 %15, ptr %18, align 8, !tbaa !9
  %19 = load ptr, ptr %3, align 8, !tbaa !4
  %20 = getelementptr inbounds nuw %struct.AVSContext, ptr %19, i32 0, i32 38
  %21 = getelementptr inbounds [9 x i32], ptr %20, i64 0, i64 7
  %22 = load i32, ptr %21, align 4, !tbaa !9
  %23 = load ptr, ptr %3, align 8, !tbaa !4
  %24 = getelementptr inbounds nuw %struct.AVSContext, ptr %23, i32 0, i32 39
  %25 = load ptr, ptr %24, align 8, !tbaa !64
  %26 = load ptr, ptr %3, align 8, !tbaa !4
  %27 = getelementptr inbounds nuw %struct.AVSContext, ptr %26, i32 0, i32 25
  %28 = load i32, ptr %27, align 8, !tbaa !26
  %29 = mul nsw i32 %28, 2
  %30 = add nsw i32 %29, 0
  %31 = sext i32 %30 to i64
  %32 = getelementptr inbounds i32, ptr %25, i64 %31
  store i32 %22, ptr %32, align 4, !tbaa !9
  %33 = load ptr, ptr %3, align 8, !tbaa !4
  %34 = getelementptr inbounds nuw %struct.AVSContext, ptr %33, i32 0, i32 38
  %35 = getelementptr inbounds [9 x i32], ptr %34, i64 0, i64 8
  %36 = load i32, ptr %35, align 8, !tbaa !9
  %37 = load ptr, ptr %3, align 8, !tbaa !4
  %38 = getelementptr inbounds nuw %struct.AVSContext, ptr %37, i32 0, i32 39
  %39 = load ptr, ptr %38, align 8, !tbaa !64
  %40 = load ptr, ptr %3, align 8, !tbaa !4
  %41 = getelementptr inbounds nuw %struct.AVSContext, ptr %40, i32 0, i32 25
  %42 = load i32, ptr %41, align 8, !tbaa !26
  %43 = mul nsw i32 %42, 2
  %44 = add nsw i32 %43, 1
  %45 = sext i32 %44 to i64
  %46 = getelementptr inbounds i32, ptr %39, i64 %45
  store i32 %36, ptr %46, align 4, !tbaa !9
  %47 = load ptr, ptr %3, align 8, !tbaa !4
  %48 = getelementptr inbounds nuw %struct.AVSContext, ptr %47, i32 0, i32 28
  %49 = load i32, ptr %48, align 4, !tbaa !41
  %50 = and i32 %49, 1
  %51 = icmp ne i32 %50, 0
  br i1 %51, label %60, label %52

52:                                               ; preds = %2
  %53 = load ptr, ptr %3, align 8, !tbaa !4
  %54 = getelementptr inbounds nuw %struct.AVSContext, ptr %53, i32 0, i32 38
  %55 = getelementptr inbounds [9 x i32], ptr %54, i64 0, i64 4
  call void @modify_pred(ptr noundef @left_modifier_l, ptr noundef %55)
  %56 = load ptr, ptr %3, align 8, !tbaa !4
  %57 = getelementptr inbounds nuw %struct.AVSContext, ptr %56, i32 0, i32 38
  %58 = getelementptr inbounds [9 x i32], ptr %57, i64 0, i64 7
  call void @modify_pred(ptr noundef @left_modifier_l, ptr noundef %58)
  %59 = load ptr, ptr %4, align 8, !tbaa !63
  call void @modify_pred(ptr noundef @left_modifier_c, ptr noundef %59)
  br label %60

60:                                               ; preds = %52, %2
  %61 = load ptr, ptr %3, align 8, !tbaa !4
  %62 = getelementptr inbounds nuw %struct.AVSContext, ptr %61, i32 0, i32 28
  %63 = load i32, ptr %62, align 4, !tbaa !41
  %64 = and i32 %63, 2
  %65 = icmp ne i32 %64, 0
  br i1 %65, label %74, label %66

66:                                               ; preds = %60
  %67 = load ptr, ptr %3, align 8, !tbaa !4
  %68 = getelementptr inbounds nuw %struct.AVSContext, ptr %67, i32 0, i32 38
  %69 = getelementptr inbounds [9 x i32], ptr %68, i64 0, i64 4
  call void @modify_pred(ptr noundef @top_modifier_l, ptr noundef %69)
  %70 = load ptr, ptr %3, align 8, !tbaa !4
  %71 = getelementptr inbounds nuw %struct.AVSContext, ptr %70, i32 0, i32 38
  %72 = getelementptr inbounds [9 x i32], ptr %71, i64 0, i64 5
  call void @modify_pred(ptr noundef @top_modifier_l, ptr noundef %72)
  %73 = load ptr, ptr %4, align 8, !tbaa !63
  call void @modify_pred(ptr noundef @top_modifier_c, ptr noundef %73)
  br label %74

74:                                               ; preds = %66, %60
  ret void
}