; Function Attrs: nounwind uwtable
define void @ff_cavs_modify_mb_i(ptr noundef captures(none) initializes((1124, 1128), (1136, 1140)) %0, ptr noundef captures(none) %1) local_unnamed_addr #0 {
  %3 = getelementptr inbounds nuw i8, ptr %0, i64 1132
  %4 = load i32, ptr %3, align 4, !tbaa !56
  %5 = getelementptr inbounds nuw i8, ptr %0, i64 1124
  store i32 %4, ptr %5, align 4, !tbaa !56
  %6 = getelementptr inbounds nuw i8, ptr %0, i64 1144
  %7 = load i32, ptr %6, align 8, !tbaa !56
  %8 = getelementptr inbounds nuw i8, ptr %0, i64 1136
  store i32 %7, ptr %8, align 8, !tbaa !56
  %9 = getelementptr inbounds nuw i8, ptr %0, i64 1140
  %10 = load i32, ptr %9, align 4, !tbaa !56
  %11 = getelementptr inbounds nuw i8, ptr %0, i64 1152
  %12 = load ptr, ptr %11, align 8, !tbaa !57
  %13 = getelementptr inbounds nuw i8, ptr %0, i64 832
  %14 = load i32, ptr %13, align 8, !tbaa !23
  %15 = shl nsw i32 %14, 1
  %16 = sext i32 %15 to i64
  %17 = getelementptr inbounds i32, ptr %12, i64 %16
  store i32 %10, ptr %17, align 4, !tbaa !56
  %18 = load i32, ptr %6, align 8, !tbaa !56
  %19 = load i32, ptr %13, align 8, !tbaa !23
  %20 = shl nsw i32 %19, 1
  %21 = sext i32 %20 to i64
  %22 = getelementptr i32, ptr %12, i64 %21
  %23 = getelementptr i8, ptr %22, i64 4
  store i32 %18, ptr %23, align 4, !tbaa !56
  %24 = getelementptr inbounds nuw i8, ptr %0, i64 844
  %25 = load i32, ptr %24, align 4, !tbaa !43
  %26 = and i32 %25, 1
  %.not = icmp eq i32 %26, 0
  br i1 %.not, label %27, label %modify_pred.exit20

27:                                               ; preds = %2
  %28 = getelementptr inbounds nuw i8, ptr %0, i64 1128
  %29 = load i32, ptr %28, align 4, !tbaa !56
  %30 = sext i32 %29 to i64
  %31 = getelementptr inbounds i8, ptr @left_modifier_l, i64 %30
  %32 = load i8, ptr %31, align 1, !tbaa !24
  %33 = sext i8 %32 to i32
  store i32 %33, ptr %28, align 4, !tbaa !56
  %34 = icmp slt i8 %32, 0
  br i1 %34, label %35, label %modify_pred.exit

35:                                               ; preds = %27
  tail call void (ptr, i32, ptr, ...) @av_log(ptr noundef null, i32 noundef 16, ptr noundef nonnull @.str.1) #14
  store i32 0, ptr %28, align 4, !tbaa !56
  br label %modify_pred.exit

modify_pred.exit:                                 ; preds = %27, %35
  %36 = load i32, ptr %9, align 4, !tbaa !56
  %37 = sext i32 %36 to i64
  %38 = getelementptr inbounds i8, ptr @left_modifier_l, i64 %37
  %39 = load i8, ptr %38, align 1, !tbaa !24
  %40 = sext i8 %39 to i32
  store i32 %40, ptr %9, align 4, !tbaa !56
  %41 = icmp slt i8 %39, 0
  br i1 %41, label %42, label %modify_pred.exit19

42:                                               ; preds = %modify_pred.exit
  tail call void (ptr, i32, ptr, ...) @av_log(ptr noundef null, i32 noundef 16, ptr noundef nonnull @.str.1) #14
  store i32 0, ptr %9, align 4, !tbaa !56
  br label %modify_pred.exit19

modify_pred.exit19:                               ; preds = %modify_pred.exit, %42
  %43 = load i32, ptr %1, align 4, !tbaa !56
  %44 = sext i32 %43 to i64
  %45 = getelementptr inbounds i8, ptr @left_modifier_c, i64 %44
  %46 = load i8, ptr %45, align 1, !tbaa !24
  %47 = sext i8 %46 to i32
  store i32 %47, ptr %1, align 4, !tbaa !56
  %48 = icmp slt i8 %46, 0
  br i1 %48, label %49, label %modify_pred.exit20

49:                                               ; preds = %modify_pred.exit19
  tail call void (ptr, i32, ptr, ...) @av_log(ptr noundef null, i32 noundef 16, ptr noundef nonnull @.str.1) #14
  store i32 0, ptr %1, align 4, !tbaa !56
  br label %modify_pred.exit20

modify_pred.exit20:                               ; preds = %49, %modify_pred.exit19, %2
  %50 = load i32, ptr %24, align 4, !tbaa !43
  %51 = and i32 %50, 2
  %.not18 = icmp eq i32 %51, 0
  br i1 %.not18, label %52, label %modify_pred.exit23

52:                                               ; preds = %modify_pred.exit20
  %53 = getelementptr inbounds nuw i8, ptr %0, i64 1128
  %54 = load i32, ptr %53, align 4, !tbaa !56
  %55 = sext i32 %54 to i64
  %56 = getelementptr inbounds i8, ptr @top_modifier_l, i64 %55
  %57 = load i8, ptr %56, align 1, !tbaa !24
  %58 = sext i8 %57 to i32
  store i32 %58, ptr %53, align 4, !tbaa !56
  %59 = icmp slt i8 %57, 0
  br i1 %59, label %60, label %modify_pred.exit21

60:                                               ; preds = %52
  tail call void (ptr, i32, ptr, ...) @av_log(ptr noundef null, i32 noundef 16, ptr noundef nonnull @.str.1) #14
  store i32 0, ptr %53, align 4, !tbaa !56
  br label %modify_pred.exit21

modify_pred.exit21:                               ; preds = %52, %60
  %61 = load i32, ptr %3, align 4, !tbaa !56
  %62 = sext i32 %61 to i64
  %63 = getelementptr inbounds i8, ptr @top_modifier_l, i64 %62
  %64 = load i8, ptr %63, align 1, !tbaa !24
  %65 = sext i8 %64 to i32
  store i32 %65, ptr %3, align 4, !tbaa !56
  %66 = icmp slt i8 %64, 0
  br i1 %66, label %67, label %modify_pred.exit22

67:                                               ; preds = %modify_pred.exit21
  tail call void (ptr, i32, ptr, ...) @av_log(ptr noundef null, i32 noundef 16, ptr noundef nonnull @.str.1) #14
  store i32 0, ptr %3, align 4, !tbaa !56
  br label %modify_pred.exit22

modify_pred.exit22:                               ; preds = %modify_pred.exit21, %67
  %68 = load i32, ptr %1, align 4, !tbaa !56
  %69 = sext i32 %68 to i64
  %70 = getelementptr inbounds i8, ptr @top_modifier_c, i64 %69
  %71 = load i8, ptr %70, align 1, !tbaa !24
  %72 = sext i8 %71 to i32
  store i32 %72, ptr %1, align 4, !tbaa !56
  %73 = icmp slt i8 %71, 0
  br i1 %73, label %74, label %modify_pred.exit23

74:                                               ; preds = %modify_pred.exit22
  tail call void (ptr, i32, ptr, ...) @av_log(ptr noundef null, i32 noundef 16, ptr noundef nonnull @.str.1) #14
  store i32 0, ptr %1, align 4, !tbaa !56
  br label %modify_pred.exit23

modify_pred.exit23:                               ; preds = %74, %modify_pred.exit22, %modify_pred.exit20
  ret void
}